target datalayout = "e-m:e-p270:32:32-p271:32:32-p272:64:64-i64:64-i128:128-f80:128-n8:16:32:64-S128"
target triple = "x86_64-pc-linux-gnu"

%struct._object = type { %union.anon, ptr }
%union.anon = type { i64 }
%struct.idarg_int64_converter_data = type { ptr, i64 }
%struct._typeobject = type { %struct.PyVarObject, ptr, i64, i64, ptr, i64, ptr, ptr, ptr, ptr, ptr, ptr, ptr, ptr, ptr, ptr, ptr, ptr, ptr, i64, ptr, ptr, ptr, ptr, i64, ptr, ptr, ptr, ptr, ptr, ptr, ptr, ptr, ptr, i64, ptr, ptr, ptr, ptr, ptr, ptr, ptr, ptr, ptr, ptr, ptr, i32, ptr, ptr, i8, i16 }
%struct.PyVarObject = type { %struct._object, i64 }

@PyExc_ValueError = external global ptr, align 8
@.str.31 = private unnamed_addr constant [3 x i8] c"ID\00", align 1
@PyExc_OverflowError = external global ptr, align 8
@.str.32 = private unnamed_addr constant [23 x i8] c"max %s is %lld, got %R\00", align 1
@.str.33 = private unnamed_addr constant [38 x i8] c"%s must be a non-negative int, got %R\00", align 1
@PyExc_TypeError = external global ptr, align 8
@.str.34 = private unnamed_addr constant [30 x i8] c"%s must be an int, got %.100s\00", align 1

; Function Attrs: inlinehint nounwind uwtable
define internal ptr @_Py_TYPE(ptr noundef %0) #5 {
  %2 = alloca ptr, align 8
  store ptr %0, ptr %2, align 8, !tbaa !3
  %3 = load ptr, ptr %2, align 8, !tbaa !3
  %4 = getelementptr inbounds nuw %struct._object, ptr %3, i32 0, i32 1
  %5 = load ptr, ptr %4, align 8, !tbaa !92
  ret ptr %5
}

; Function Attrs: nounwind uwtable
define internal i32 @idarg_int64_converter(ptr noundef %0, ptr noundef %1) #0 {
  %3 = alloca i32, align 4
  %4 = alloca ptr, align 8
  %5 = alloca ptr, align 8
  %6 = alloca i64, align 8
  %7 = alloca ptr, align 8
  %8 = alloca ptr, align 8
  %9 = alloca i32, align 4
  %10 = alloca i32, align 4
  store ptr %0, ptr %4, align 8, !tbaa !3
  store ptr %1, ptr %5, align 8, !tbaa !8
  call void @llvm.lifetime.start.p0(i64 8, ptr %6) #8
  call void @llvm.lifetime.start.p0(i64 8, ptr %7) #8
  %11 = load ptr, ptr %5, align 8, !tbaa !8
  store ptr %11, ptr %7, align 8, !tbaa !80
  call void @llvm.lifetime.start.p0(i64 8, ptr %8) #8
  %12 = load ptr, ptr %7, align 8, !tbaa !80
  %13 = getelementptr inbounds nuw %struct.idarg_int64_converter_data, ptr %12, i32 0, i32 0
  %14 = load ptr, ptr %13, align 8, !tbaa !82
  store ptr %14, ptr %8, align 8, !tbaa !83
  %15 = load ptr, ptr %8, align 8, !tbaa !83
  %16 = icmp eq ptr %15, null
  br i1 %16, label %17, label %18

17:                                               ; preds = %2
  store ptr @.str.31, ptr %8, align 8, !tbaa !83
  br label %18

18:                                               ; preds = %17, %2
  %19 = load ptr, ptr %4, align 8, !tbaa !3
  %20 = call i32 @PyIndex_Check(ptr noundef %19)
  %21 = icmp ne i32 %20, 0
  br i1 %21, label %22, label %56

22:                                               ; preds = %18
  call void @llvm.lifetime.start.p0(i64 4, ptr %9) #8
  store i32 0, ptr %9, align 4, !tbaa !9
  %23 = load ptr, ptr %4, align 8, !tbaa !3
  %24 = call i64 @PyLong_AsLongLongAndOverflow(ptr noundef %23, ptr noundef %9)
  store i64 %24, ptr %6, align 8, !tbaa !11
  %25 = load i64, ptr %6, align 8, !tbaa !11
  %26 = icmp eq i64 %25, -1
  br i1 %26, label %27, label %31

27:                                               ; preds = %22
  %28 = call ptr @PyErr_Occurred()
  %29 = icmp ne ptr %28, null
  br i1 %29, label %30, label %31

30:                                               ; preds = %27
  store i32 0, ptr %3, align 4
  store i32 1, ptr %10, align 4
  br label %53

31:                                               ; preds = %27, %22
  %32 = load i64, ptr %6, align 8, !tbaa !11
  %33 = icmp eq i64 %32, -1
  br i1 %33, label %34, label %42

34:                                               ; preds = %31
  %35 = load i32, ptr %9, align 4, !tbaa !9
  %36 = icmp eq i32 %35, 1
  br i1 %36, label %37, label %42

37:                                               ; preds = %34
  %38 = load ptr, ptr @PyExc_OverflowError, align 8, !tbaa !3
  %39 = load ptr, ptr %8, align 8, !tbaa !83
  %40 = load ptr, ptr %4, align 8, !tbaa !3
  %41 = call ptr (ptr, ptr, ...) @PyErr_Format(ptr noundef %38, ptr noundef @.str.32, ptr noundef %39, i64 noundef 9223372036854775807, ptr noundef %40)
  store i32 0, ptr %3, align 4
  store i32 1, ptr %10, align 4
  br label %53

42:                                               ; preds = %34, %31
  %43 = load i64, ptr %6, align 8, !tbaa !11
  %44 = icmp slt i64 %43, 0
  br i1 %44, label %45, label %50

45:                                               ; preds = %42
  %46 = load ptr, ptr @PyExc_ValueError, align 8, !tbaa !3
  %47 = load ptr, ptr %8, align 8, !tbaa !83
  %48 = load ptr, ptr %4, align 8, !tbaa !3
  %49 = call ptr (ptr, ptr, ...) @PyErr_Format(ptr noundef %46, ptr noundef @.str.33, ptr noundef %47, ptr noundef %48)
  store i32 0, ptr %3, align 4
  store i32 1, ptr %10, align 4
  br label %53

50:                                               ; preds = %42
  br label %51

51:                                               ; preds = %50
  br label %52

52:                                               ; preds = %51
  store i32 0, ptr %10, align 4
  br label %53

53:                                               ; preds = %52, %45, %37, %30
  call void @llvm.lifetime.end.p0(i64 4, ptr %9) #8
  %54 = load i32, ptr %10, align 4
  switch i32 %54, label %68 [
    i32 0, label %55
  ]

55:                                               ; preds = %53
  br label %64

56:                                               ; preds = %18
  %57 = load ptr, ptr @PyExc_TypeError, align 8, !tbaa !3
  %58 = load ptr, ptr %8, align 8, !tbaa !83
  %59 = load ptr, ptr %4, align 8, !tbaa !3
  %60 = call ptr @_Py_TYPE(ptr noundef %59)
  %61 = getelementptr inbounds nuw %struct._typeobject, ptr %60, i32 0, i32 1
  %62 = load ptr, ptr %61, align 8, !tbaa !84
  %63 = call ptr (ptr, ptr, ...) @PyErr_Format(ptr noundef %57, ptr noundef @.str.34, ptr noundef %58, ptr noundef %62)
  store i32 0, ptr %3, align 4
  store i32 1, ptr %10, align 4
  br label %68

64:                                               ; preds = %55
  %65 = load i64, ptr %6, align 8, !tbaa !11
  %66 = load ptr, ptr %7, align 8, !tbaa !80
  %67 = getelementptr inbounds nuw %struct.idarg_int64_converter_data, ptr %66, i32 0, i32 1
  store i64 %65, ptr %67, align 8, !tbaa !13
  store i32 1, ptr %3, align 4
  store i32 1, ptr %10, align 4
  br label %68

68:                                               ; preds = %64, %56, %53
  call void @llvm.lifetime.end.p0(i64 8, ptr %8) #8
  call void @llvm.lifetime.end.p0(i64 8, ptr %7) #8
  call void @llvm.lifetime.end.p0(i64 8, ptr %6) #8
  %69 = load i32, ptr %3, align 4
  ret i32 %69
}