; Function Attrs: nounwind uwtable
define internal fastcc range(i32 0, 2) i32 @idarg_int64_converter(ptr noundef %0, ptr noundef captures(none) %1) unnamed_addr #0 {
  %3 = alloca i32, align 4
  %4 = load ptr, ptr %1, align 8, !tbaa !87
  %5 = icmp eq ptr %4, null
  %spec.store.select = select i1 %5, ptr @.str.31, ptr %4
  %6 = tail call i32 @PyIndex_Check(ptr noundef %0) #6
  %.not = icmp eq i32 %6, 0
  br i1 %.not, label %24, label %7

7:                                                ; preds = %2
  call void @llvm.lifetime.start.p0(i64 4, ptr nonnull %3) #6
  store i32 0, ptr %3, align 4, !tbaa !14
  %8 = call i64 @PyLong_AsLongLongAndOverflow(ptr noundef %0, ptr noundef nonnull %3) #6
  %9 = icmp eq i64 %8, -1
  br i1 %9, label %10, label %18

10:                                               ; preds = %7
  %11 = call ptr @PyErr_Occurred() #6
  %.not19 = icmp eq ptr %11, null
  br i1 %.not19, label %12, label %.critedge

12:                                               ; preds = %10
  %13 = load i32, ptr %3, align 4
  %14 = icmp eq i32 %13, 1
  br i1 %14, label %15, label %.thread21

15:                                               ; preds = %12
  %16 = load ptr, ptr @PyExc_OverflowError, align 8, !tbaa !16
  %17 = call ptr (ptr, ptr, ...) @PyErr_Format(ptr noundef %16, ptr noundef nonnull @.str.32, ptr noundef nonnull %spec.store.select, i64 noundef 9223372036854775807, ptr noundef %0) #6
  br label %.critedge

18:                                               ; preds = %7
  %19 = icmp slt i64 %8, 0
  br i1 %19, label %.thread21, label %22

.thread21:                                        ; preds = %12, %18
  %20 = load ptr, ptr @PyExc_ValueError, align 8, !tbaa !16
  %21 = call ptr (ptr, ptr, ...) @PyErr_Format(ptr noundef %20, ptr noundef nonnull @.str.33, ptr noundef nonnull %spec.store.select, ptr noundef %0) #6
  br label %.critedge

22:                                               ; preds = %18
  call void @llvm.lifetime.end.p0(i64 4, ptr nonnull %3) #6
  %23 = getelementptr inbounds nuw i8, ptr %1, i64 8
  store i64 %8, ptr %23, align 8, !tbaa !43
  br label %30

24:                                               ; preds = %2
  %25 = load ptr, ptr @PyExc_TypeError, align 8, !tbaa !16
  %26 = getelementptr i8, ptr %0, i64 8
  %.val = load ptr, ptr %26, align 8, !tbaa !78
  %27 = getelementptr inbounds nuw i8, ptr %.val, i64 24
  %28 = load ptr, ptr %27, align 8, !tbaa !88
  %29 = tail call ptr (ptr, ptr, ...) @PyErr_Format(ptr noundef %25, ptr noundef nonnull @.str.34, ptr noundef nonnull %spec.store.select, ptr noundef %28) #6
  br label %30

.critedge:                                        ; preds = %10, %.thread21, %15
  call void @llvm.lifetime.end.p0(i64 4, ptr nonnull %3) #6
  br label %30

30:                                               ; preds = %.critedge, %22, %24
  %.1 = phi i32 [ 1, %22 ], [ 0, %24 ], [ 0, %.critedge ]
  ret i32 %.1
}